; Function Attrs: mustprogress nounwind uwtable
define noundef signext range(i8 0, 2) i8 @_ZN6icu_7714MessagePattern4initER10UErrorCode(ptr noundef nonnull writeonly align 8 captures(none) dereferenceable(127) %0, ptr noundef nonnull align 4 captures(none) dereferenceable(4) %1) local_unnamed_addr #0 align 2 personality ptr @__gxx_personality_v0 {
  %3 = load i32, ptr %1, align 4, !tbaa !20
  %4 = icmp slt i32 %3, 1
  br i1 %4, label %5, label %15

5:                                                ; preds = %2
  %6 = tail call noundef ptr @_ZN6icu_777UMemorynwEm(i64 noundef 528) #18
  %7 = icmp eq ptr %6, null
  br i1 %7, label %8, label %10

8:                                                ; preds = %5
  %9 = getelementptr inbounds nuw i8, ptr %0, i64 80
  store ptr null, ptr %9, align 8, !tbaa !22
  store i32 7, ptr %1, align 4, !tbaa !20
  br label %15

10:                                               ; preds = %5
  %11 = getelementptr inbounds nuw i8, ptr %6, i64 8
  tail call void @llvm.memset.p0.i64(ptr noundef nonnull align 8 dereferenceable(520) %11, i8 0, i64 520, i1 false)
  %.ptr2.i.i.i = getelementptr inbounds nuw i8, ptr %6, i64 16
  store ptr %.ptr2.i.i.i, ptr %6, align 8, !tbaa !23
  %12 = getelementptr inbounds nuw i8, ptr %6, i64 8
  store i32 32, ptr %12, align 8, !tbaa !25
  %13 = getelementptr inbounds nuw i8, ptr %0, i64 80
  store ptr %6, ptr %13, align 8, !tbaa !22
  %14 = getelementptr inbounds nuw i8, ptr %0, i64 88
  store ptr %.ptr2.i.i.i, ptr %14, align 8, !tbaa !26
  br label %15

15:                                               ; preds = %2, %10, %8
  %.0 = phi i8 [ 0, %8 ], [ 1, %10 ], [ 0, %2 ]
  ret i8 %.0
}